; Function Attrs: mustprogress nounwind uwtable
define internal void @_ZN12_GLOBAL__N_121NativeTypeFunctionArgD0Ev(ptr noundef nonnull align 8 dereferenceable(32) %0) unnamed_addr #0 align 2 {
  store ptr getelementptr inbounds inrange(-16, 1448) (i8, ptr @_ZTVN12_GLOBAL__N_121NativeTypeFunctionArgE, i64 16), ptr %0, align 8
  %2 = getelementptr inbounds nuw i8, ptr %0, i64 24
  %3 = load ptr, ptr %2, align 8
  %.not.i.i = icmp eq ptr %3, null
  br i1 %.not.i.i, label %_ZN12_GLOBAL__N_121NativeTypeFunctionArgD2Ev.exit, label %_ZNKSt14default_deleteIN4llvm3pdb9PDBSymbolEEclEPS2_.exit.i.i

_ZNKSt14default_deleteIN4llvm3pdb9PDBSymbolEEclEPS2_.exit.i.i: ; preds = %1
  %4 = load ptr, ptr %3, align 8
  %5 = getelementptr inbounds i8, ptr %4, i64 8
  %6 = load ptr, ptr %5, align 8
  tail call void %6(ptr noundef nonnull align 8 dereferenceable(32) %3) #14
  br label %_ZN12_GLOBAL__N_121NativeTypeFunctionArgD2Ev.exit

_ZN12_GLOBAL__N_121NativeTypeFunctionArgD2Ev.exit: ; preds = %1, %_ZNKSt14default_deleteIN4llvm3pdb9PDBSymbolEEclEPS2_.exit.i.i
  store ptr null, ptr %2, align 8
  tail call void @_ZN4llvm3pdb13IPDBRawSymbolD2Ev(ptr noundef nonnull align 8 dereferenceable(8) %0) #14
  tail call void @_ZdlPvm(ptr noundef nonnull %0, i64 noundef 32) #15
  ret void
}